; Function Attrs: mustprogress nounwind uwtable
define dso_local void @_ZN5clang13SelectorTable19constructSetterNameEN4llvm9StringRefE(ptr dead_on_unwind noalias nonnull writable sret(%"class.llvm::SmallString.30") align 8 %0, ptr %1, i64 %2) local_unnamed_addr #3 align 2 {
  %4 = getelementptr inbounds i8, ptr %0, i64 24
  tail call void @_ZN4llvm15SmallVectorBaseImEC2EPvm(ptr noundef nonnull align 8 dereferenceable(24) %0, ptr noundef nonnull %4, i64 noundef 64) #26
  tail call void @_ZN4llvm15SmallVectorImplIcE6appendIPKcvEEvT_S5_(ptr noundef nonnull align 8 dereferenceable(24) %0, ptr noundef nonnull @.str.497, ptr noundef nonnull getelementptr inbounds (i8, ptr @.str.497, i64 3))
  %5 = getelementptr inbounds i8, ptr %1, i64 %2
  tail call void @_ZN4llvm15SmallVectorImplIcE6appendIPKcvEEvT_S5_(ptr noundef nonnull align 8 dereferenceable(24) %0, ptr noundef %1, ptr noundef %5)
  %6 = load ptr, ptr %0, align 8
  %7 = getelementptr inbounds i8, ptr %6, i64 3
  %8 = load i8, ptr %7, align 1
  %9 = zext i8 %8 to i64
  %10 = getelementptr inbounds [256 x i16], ptr @_ZN5clang8charinfo9InfoTableE, i64 0, i64 %9
  %11 = load i16, ptr %10, align 2
  %12 = and i16 %11, 64
  %.not.i = icmp eq i16 %12, 0
  %13 = add i8 %8, -32
  %.0.i = select i1 %.not.i, i8 %8, i8 %13
  store i8 %.0.i, ptr %7, align 1
  ret void
}